target datalayout = "e-m:e-p270:32:32-p271:32:32-p272:64:64-i64:64-i128:128-f80:128-n8:16:32:64-S128"
target triple = "x86_64-pc-linux-gnu"

%struct.expert_field = type { i32, i32 }
%struct._packet_info = type { ptr, ptr, i32, i32, %struct.nstime_t, %struct.nstime_t, %struct.nstime_t, i8, ptr, ptr, ptr, ptr, %struct._address, %struct._address, %struct._address, %struct._address, %struct._address, %struct._address, i32, ptr, i8, [3 x i8], %struct.anon, i32, i32, i32, i32, ptr, i8, ptr, ptr, i16, i16, i32, i32, i16, i32, i32, ptr, ptr, ptr, i8, i8, i16, i16, i16, i32, i16, i16, ptr, ptr, ptr, ptr, ptr, i32, i32 }
%struct.nstime_t = type { i64, i32 }
%struct._address = type { i32, i32, ptr, ptr }
%struct.anon = type { i8, [3 x i8] }

@hf_t30_partial_page_request_frame_count = internal global i32 0, align 4
@hf_t30_partial_page_request_frames = internal global i32 0, align 4
@ei_t30_bad_length = internal global %struct.expert_field zeroinitializer, align 4
@.str.405 = private unnamed_addr constant [29 x i8] c" [MALFORMED OR SHORT PACKET]\00", align 1
@.str.419 = private unnamed_addr constant [32 x i8] c"T30 PPR length must be 32 bytes\00", align 1
@.str.420 = private unnamed_addr constant [29 x i8] c"%s:%u: failed assertion \22%s\22\00", align 1
@.str.421 = private unnamed_addr constant [29 x i8] c"epan/dissectors/packet-t30.c\00", align 1
@.str.422 = private unnamed_addr constant [50 x i8] c"(buf_top-buf) < (10*1 + 90*2 + 156*3 + 256*2 + 1)\00", align 1
@.str.423 = private unnamed_addr constant [5 x i8] c"%u, \00", align 1
@.str.424 = private unnamed_addr constant [3 x i8] c"%s\00", align 1
@.str.425 = private unnamed_addr constant [13 x i8] c" - %d frames\00", align 1

; Function Attrs: null_pointer_is_valid sspstrong uwtable
define internal void @dissect_t30_partial_page_request(ptr noundef %0, i32 noundef %1, ptr noundef %2, i32 noundef %3, ptr noundef %4) #1 {
  %6 = alloca ptr, align 8
  %7 = alloca i32, align 4
  %8 = alloca ptr, align 8
  %9 = alloca i32, align 4
  %10 = alloca ptr, align 8
  %11 = alloca i32, align 4
  %12 = alloca i32, align 4
  %13 = alloca i32, align 4
  %14 = alloca ptr, align 8
  %15 = alloca ptr, align 8
  %16 = alloca i32, align 4
  %17 = alloca i8, align 1
  %18 = alloca i8, align 1
  store ptr %0, ptr %6, align 8
  store i32 %1, ptr %7, align 4
  store ptr %2, ptr %8, align 8
  store i32 %3, ptr %9, align 4
  store ptr %4, ptr %10, align 8
  call void @llvm.lifetime.start.p0(i64 4, ptr %11) #8
  call void @llvm.lifetime.start.p0(i64 4, ptr %12) #8
  store i32 0, ptr %12, align 4
  call void @llvm.lifetime.start.p0(i64 4, ptr %13) #8
  call void @llvm.lifetime.start.p0(i64 8, ptr %14) #8
  %19 = load ptr, ptr %8, align 8
  %20 = getelementptr inbounds nuw %struct._packet_info, ptr %19, i32 0, i32 51
  %21 = load ptr, ptr %20, align 8
  %22 = call noalias ptr @wmem_alloc(ptr noundef %21, i64 noundef 1171) #9
  store ptr %22, ptr %14, align 8
  call void @llvm.lifetime.start.p0(i64 8, ptr %15) #8
  %23 = load ptr, ptr %14, align 8
  store ptr %23, ptr %15, align 8
  %24 = load i32, ptr %9, align 4
  %25 = icmp ne i32 %24, 32
  br i1 %25, label %26, label %38

26:                                               ; preds = %5
  %27 = load ptr, ptr %10, align 8
  %28 = load ptr, ptr %8, align 8
  %29 = load ptr, ptr %6, align 8
  %30 = load i32, ptr %7, align 4
  %31 = load ptr, ptr %6, align 8
  %32 = load i32, ptr %7, align 4
  %33 = call i32 @tvb_reported_length_remaining(ptr noundef %31, i32 noundef %32)
  %34 = call ptr (ptr, ptr, ptr, ptr, i32, i32, ptr, ...) @proto_tree_add_expert_format(ptr noundef %27, ptr noundef %28, ptr noundef @ei_t30_bad_length, ptr noundef %29, i32 noundef %30, i32 noundef %33, ptr noundef @.str.419)
  %35 = load ptr, ptr %8, align 8
  %36 = getelementptr inbounds nuw %struct._packet_info, ptr %35, i32 0, i32 1
  %37 = load ptr, ptr %36, align 8
  call void @col_append_str(ptr noundef %37, i32 noundef 25, ptr noundef @.str.405)
  store i32 1, ptr %16, align 4
  br label %123

38:                                               ; preds = %5
  %39 = load i32, ptr %7, align 4
  store i32 %39, ptr %11, align 4
  store i32 0, ptr %13, align 4
  br label %40

40:                                               ; preds = %91, %38
  %41 = load i32, ptr %13, align 4
  %42 = icmp slt i32 %41, 255
  br i1 %42, label %43, label %94

43:                                               ; preds = %40
  call void @llvm.lifetime.start.p0(i64 1, ptr %17) #8
  %44 = load ptr, ptr %6, align 8
  %45 = load i32, ptr %7, align 4
  %46 = call zeroext i8 @tvb_get_uint8(ptr noundef %44, i32 noundef %45)
  store i8 %46, ptr %17, align 1
  call void @llvm.lifetime.start.p0(i64 1, ptr %18) #8
  store i8 -128, ptr %18, align 1
  br label %47

47:                                               ; preds = %84, %43
  %48 = load i8, ptr %18, align 1
  %49 = icmp ne i8 %48, 0
  br i1 %49, label %50, label %91

50:                                               ; preds = %47
  %51 = load i8, ptr %17, align 1
  %52 = zext i8 %51 to i32
  %53 = load i8, ptr %18, align 1
  %54 = zext i8 %53 to i32
  %55 = and i32 %52, %54
  %56 = icmp ne i32 %55, 0
  br i1 %56, label %57, label %84

57:                                               ; preds = %50
  %58 = load i32, ptr %12, align 4
  %59 = add i32 %58, 1
  store i32 %59, ptr %12, align 4
  %60 = load ptr, ptr %15, align 8
  %61 = load ptr, ptr %14, align 8
  %62 = ptrtoint ptr %60 to i64
  %63 = ptrtoint ptr %61 to i64
  %64 = sub i64 %62, %63
  %65 = icmp slt i64 %64, 1171
  br i1 %65, label %66, label %67

66:                                               ; preds = %57
  br label %69

67:                                               ; preds = %57
  call void (ptr, ...) @proto_report_dissector_bug(ptr noundef @.str.420, ptr noundef @.str.421, i32 noundef 644, ptr noundef @.str.422) #10
  unreachable

68:                                               ; No predecessors!
  br label %69

69:                                               ; preds = %68, %66
  %70 = load ptr, ptr %15, align 8
  %71 = load ptr, ptr %15, align 8
  %72 = load ptr, ptr %14, align 8
  %73 = ptrtoint ptr %71 to i64
  %74 = ptrtoint ptr %72 to i64
  %75 = sub i64 %73, %74
  %76 = sub i64 1171, %75
  %77 = load ptr, ptr %15, align 8
  %78 = call i64 @llvm.objectsize.i64.p0(ptr %77, i1 false, i1 true, i1 true)
  %79 = load i32, ptr %13, align 4
  %80 = call i32 (ptr, i64, i32, i64, ptr, ...) @__snprintf_chk(ptr noundef %70, i64 noundef %76, i32 noundef 2, i64 noundef %78, ptr noundef @.str.423, i32 noundef %79)
  %81 = load ptr, ptr %15, align 8
  %82 = sext i32 %80 to i64
  %83 = getelementptr i8, ptr %81, i64 %82
  store ptr %83, ptr %15, align 8
  br label %84

84:                                               ; preds = %69, %50
  %85 = load i8, ptr %18, align 1
  %86 = zext i8 %85 to i32
  %87 = ashr i32 %86, 1
  %88 = trunc i32 %87 to i8
  store i8 %88, ptr %18, align 1
  %89 = load i32, ptr %13, align 4
  %90 = add i32 %89, 1
  store i32 %90, ptr %13, align 4
  br label %47, !llvm.loop !8

91:                                               ; preds = %47
  %92 = load i32, ptr %7, align 4
  %93 = add i32 %92, 1
  store i32 %93, ptr %7, align 4
  call void @llvm.lifetime.end.p0(i64 1, ptr %18) #8
  call void @llvm.lifetime.end.p0(i64 1, ptr %17) #8
  br label %40, !llvm.loop !10

94:                                               ; preds = %40
  %95 = load ptr, ptr %10, align 8
  %96 = load i32, ptr @hf_t30_partial_page_request_frame_count, align 4
  %97 = load ptr, ptr %6, align 8
  %98 = load i32, ptr %7, align 4
  %99 = load i32, ptr %12, align 4
  %100 = call ptr @proto_tree_add_uint(ptr noundef %95, i32 noundef %96, ptr noundef %97, i32 noundef %98, i32 noundef 1, i32 noundef %99)
  %101 = load ptr, ptr %15, align 8
  %102 = load ptr, ptr %14, align 8
  %103 = getelementptr i8, ptr %102, i64 1
  %104 = icmp ugt ptr %101, %103
  br i1 %104, label %105, label %118

105:                                              ; preds = %94
  %106 = load ptr, ptr %15, align 8
  %107 = getelementptr i8, ptr %106, i64 -2
  store i8 0, ptr %107, align 1
  %108 = load ptr, ptr %10, align 8
  %109 = load i32, ptr @hf_t30_partial_page_request_frames, align 4
  %110 = load ptr, ptr %6, align 8
  %111 = load i32, ptr %11, align 4
  %112 = load i32, ptr %7, align 4
  %113 = load i32, ptr %11, align 4
  %114 = sub i32 %112, %113
  %115 = load ptr, ptr %14, align 8
  %116 = load ptr, ptr %14, align 8
  %117 = call ptr (ptr, i32, ptr, i32, i32, ptr, ptr, ...) @proto_tree_add_string_format_value(ptr noundef %108, i32 noundef %109, ptr noundef %110, i32 noundef %111, i32 noundef %114, ptr noundef %115, ptr noundef @.str.424, ptr noundef %116)
  br label %118

118:                                              ; preds = %105, %94
  %119 = load ptr, ptr %8, align 8
  %120 = getelementptr inbounds nuw %struct._packet_info, ptr %119, i32 0, i32 1
  %121 = load ptr, ptr %120, align 8
  %122 = load i32, ptr %12, align 4
  call void (ptr, i32, ptr, ...) @col_append_fstr(ptr noundef %121, i32 noundef 25, ptr noundef @.str.425, i32 noundef %122)
  store i32 0, ptr %16, align 4
  br label %123

123:                                              ; preds = %118, %26
  call void @llvm.lifetime.end.p0(i64 8, ptr %15) #8
  call void @llvm.lifetime.end.p0(i64 8, ptr %14) #8
  call void @llvm.lifetime.end.p0(i64 4, ptr %13) #8
  call void @llvm.lifetime.end.p0(i64 4, ptr %12) #8
  call void @llvm.lifetime.end.p0(i64 4, ptr %11) #8
  %124 = load i32, ptr %16, align 4
  switch i32 %124, label %126 [
    i32 0, label %125
    i32 1, label %125
  ]

125:                                              ; preds = %123, %123
  ret void

126:                                              ; preds = %123
  unreachable
}