; Function Attrs: null_pointer_is_valid sspstrong uwtable
define internal fastcc void @dissect_t30_partial_page_request(ptr noundef %0, ptr noundef %1, i32 noundef %2, ptr noundef %3) unnamed_addr #1 {
  %5 = getelementptr inbounds nuw i8, ptr %1, i64 408
  %6 = load ptr, ptr %5, align 8
  %7 = tail call noalias dereferenceable_or_null(1171) ptr @wmem_alloc(ptr noundef %6, i64 noundef 1171) #10
  %.not = icmp eq i32 %2, 32
  br i1 %.not, label %.preheader, label %9

.preheader:                                       ; preds = %4
  %8 = ptrtoint ptr %7 to i64
  br label %14

9:                                                ; preds = %4
  %10 = tail call i32 @tvb_reported_length_remaining(ptr noundef %0, i32 noundef 3)
  %11 = tail call ptr (ptr, ptr, ptr, ptr, i32, i32, ptr, ...) @proto_tree_add_expert_format(ptr noundef %3, ptr noundef %1, ptr noundef nonnull @ei_t30_bad_length, ptr noundef %0, i32 noundef 3, i32 noundef %10, ptr noundef nonnull @.str.419)
  %12 = getelementptr inbounds nuw i8, ptr %1, i64 8
  %13 = load ptr, ptr %12, align 8
  tail call void @col_append_str(ptr noundef %13, i32 noundef 25, ptr noundef nonnull @.str.405)
  br label %54

14:                                               ; preds = %.preheader, %38
  %.04468 = phi i32 [ 3, %.preheader ], [ %39, %38 ]
  %.04567 = phi ptr [ %7, %.preheader ], [ %.2, %38 ]
  %15 = phi i64 [ 0, %.preheader ], [ %35, %38 ]
  %.04666 = phi i32 [ 0, %.preheader ], [ %.248, %38 ]
  %.04965 = phi i32 [ 0, %.preheader ], [ %17, %38 ]
  %16 = tail call zeroext i8 @tvb_get_uint8(ptr noundef %0, i32 noundef %.04468)
  %17 = add nuw nsw i32 %.04965, 8
  br label %18

18:                                               ; preds = %14, %34
  %.064 = phi i8 [ -128, %14 ], [ %36, %34 ]
  %.163 = phi ptr [ %.04567, %14 ], [ %.2, %34 ]
  %19 = phi i64 [ %15, %14 ], [ %35, %34 ]
  %.14762 = phi i32 [ %.04666, %14 ], [ %.248, %34 ]
  %.15061 = phi i32 [ %.04965, %14 ], [ %37, %34 ]
  %20 = and i8 %.064, %16
  %.not53 = icmp eq i8 %20, 0
  br i1 %.not53, label %34, label %21

21:                                               ; preds = %18
  %22 = ptrtoint ptr %.163 to i64
  %23 = sub i64 %22, %8
  %24 = icmp slt i64 %23, 1171
  br i1 %24, label %26, label %25

25:                                               ; preds = %21
  tail call void (ptr, ...) @proto_report_dissector_bug(ptr noundef nonnull @.str.420, ptr noundef nonnull @.str.421, i32 noundef 644, ptr noundef nonnull @.str.422) #11
  unreachable

26:                                               ; preds = %21
  %27 = add i32 %.14762, 1
  %28 = sub i64 1171, %23
  %29 = tail call i64 @llvm.usub.sat.i64(i64 1171, i64 %19)
  %30 = tail call i32 (ptr, i64, i32, i64, ptr, ...) @__snprintf_chk(ptr noundef %.163, i64 noundef %28, i32 noundef 2, i64 noundef %29, ptr noundef nonnull @.str.423, i32 noundef %.15061)
  %31 = sext i32 %30 to i64
  %32 = add i64 %19, %31
  %33 = getelementptr i8, ptr %.163, i64 %31
  br label %34

34:                                               ; preds = %26, %18
  %.248 = phi i32 [ %27, %26 ], [ %.14762, %18 ]
  %35 = phi i64 [ %32, %26 ], [ %19, %18 ]
  %.2 = phi ptr [ %33, %26 ], [ %.163, %18 ]
  %36 = lshr i8 %.064, 1
  %37 = add i32 %.15061, 1
  %exitcond = icmp eq i32 %37, %17
  br i1 %exitcond, label %38, label %18, !llvm.loop !8

38:                                               ; preds = %34
  %39 = add i32 %.04468, 1
  %40 = icmp samesign ult i32 %.04965, 247
  br i1 %40, label %14, label %41, !llvm.loop !9

41:                                               ; preds = %38
  %42 = load i32, ptr @hf_t30_partial_page_request_frame_count, align 4
  %43 = tail call ptr @proto_tree_add_uint(ptr noundef %3, i32 noundef %42, ptr noundef %0, i32 noundef %39, i32 noundef 1, i32 noundef %.248)
  %44 = getelementptr i8, ptr %7, i64 1
  %45 = icmp ugt ptr %.2, %44
  br i1 %45, label %46, label %51

46:                                               ; preds = %41
  %47 = getelementptr i8, ptr %.2, i64 -2
  store i8 0, ptr %47, align 1
  %48 = load i32, ptr @hf_t30_partial_page_request_frames, align 4
  %49 = add i32 %.04468, -2
  %50 = tail call ptr (ptr, i32, ptr, i32, i32, ptr, ptr, ...) @proto_tree_add_string_format_value(ptr noundef %3, i32 noundef %48, ptr noundef %0, i32 noundef 3, i32 noundef %49, ptr noundef %7, ptr noundef nonnull @.str.424, ptr noundef %7)
  br label %51

51:                                               ; preds = %46, %41
  %52 = getelementptr inbounds nuw i8, ptr %1, i64 8
  %53 = load ptr, ptr %52, align 8
  tail call void (ptr, i32, ptr, ...) @col_append_fstr(ptr noundef %53, i32 noundef 25, ptr noundef nonnull @.str.425, i32 noundef %.248)
  br label %54

54:                                               ; preds = %51, %9
  ret void
}